; Function Attrs: nounwind sspstrong uwtable
define internal i64 @rb_struct_equal(i64 noundef %0, i64 noundef %1) #0 {
  %3 = icmp eq i64 %0, %1
  br i1 %3, label %rbimpl_RB_TYPE_P_fastpath.exit.thread, label %4

4:                                                ; preds = %2
  %5 = icmp eq i64 %1, 0
  %6 = and i64 %1, 7
  %7 = icmp ne i64 %6, 0
  %8 = or i1 %5, %7
  br i1 %8, label %rbimpl_RB_TYPE_P_fastpath.exit.thread, label %rbimpl_RB_TYPE_P_fastpath.exit

rbimpl_RB_TYPE_P_fastpath.exit:                   ; preds = %4
  %9 = inttoptr i64 %1 to ptr
  %10 = load i64, ptr %9, align 8, !tbaa !11
  %11 = and i64 %10, 31
  %12 = icmp eq i64 %11, 9
  br i1 %12, label %13, label %rbimpl_RB_TYPE_P_fastpath.exit.thread

13:                                               ; preds = %rbimpl_RB_TYPE_P_fastpath.exit
  %14 = tail call i64 @rb_obj_class(i64 noundef %0) #19
  %15 = tail call i64 @rb_obj_class(i64 noundef %1) #19
  %.not = icmp eq i64 %14, %15
  br i1 %.not, label %16, label %rbimpl_RB_TYPE_P_fastpath.exit.thread

16:                                               ; preds = %13
  %17 = inttoptr i64 %0 to ptr
  %18 = load i64, ptr %17, align 8, !tbaa !11
  %19 = and i64 %18, 1040384
  %.not.i = icmp eq i64 %19, 0
  br i1 %.not.i, label %23, label %20

20:                                               ; preds = %16
  %21 = lshr i64 %18, 13
  %22 = and i64 %21, 127
  br label %internal_RSTRUCT_LEN.exit

23:                                               ; preds = %16
  %24 = getelementptr inbounds nuw i8, ptr %17, i64 16
  %25 = load i64, ptr %24, align 8, !tbaa !13
  br label %internal_RSTRUCT_LEN.exit

internal_RSTRUCT_LEN.exit:                        ; preds = %20, %23
  %.0.i14 = phi i64 [ %22, %20 ], [ %25, %23 ]
  %26 = load i64, ptr %9, align 8, !tbaa !11
  %27 = and i64 %26, 1040384
  %.not.i15 = icmp eq i64 %27, 0
  br i1 %.not.i15, label %31, label %28

28:                                               ; preds = %internal_RSTRUCT_LEN.exit
  %29 = lshr i64 %26, 13
  %30 = and i64 %29, 127
  br label %internal_RSTRUCT_LEN.exit17

31:                                               ; preds = %internal_RSTRUCT_LEN.exit
  %32 = getelementptr inbounds nuw i8, ptr %9, i64 16
  %33 = load i64, ptr %32, align 8, !tbaa !13
  br label %internal_RSTRUCT_LEN.exit17

internal_RSTRUCT_LEN.exit17:                      ; preds = %28, %31
  %.0.i16 = phi i64 [ %30, %28 ], [ %33, %31 ]
  %.not13 = icmp eq i64 %.0.i14, %.0.i16
  br i1 %.not13, label %35, label %34

34:                                               ; preds = %internal_RSTRUCT_LEN.exit17
  tail call void (ptr, ...) @rb_bug(ptr noundef nonnull @.str.55) #26
  unreachable

35:                                               ; preds = %internal_RSTRUCT_LEN.exit17
  %36 = tail call i64 @rb_exec_recursive_paired(ptr noundef nonnull @recursive_equal, i64 noundef %0, i64 noundef %1, i64 noundef %1) #19
  br label %rbimpl_RB_TYPE_P_fastpath.exit.thread

rbimpl_RB_TYPE_P_fastpath.exit.thread:            ; preds = %4, %13, %rbimpl_RB_TYPE_P_fastpath.exit, %2, %35
  %.0 = phi i64 [ %36, %35 ], [ 20, %2 ], [ 0, %rbimpl_RB_TYPE_P_fastpath.exit ], [ 0, %13 ], [ 0, %4 ]
  ret i64 %.0
}